target datalayout = "e-m:e-p270:32:32-p271:32:32-p272:64:64-i64:64-i128:128-f80:128-n8:16:32:64-S128"
target triple = "x86_64-pc-linux-gnu"

%struct.varattrib_1b = type { i8, [0 x i8] }
%struct.anon = type { i32, [0 x i8] }
%struct.varattrib_1b_e = type { i8, i8, [0 x i8] }
%struct.FunctionCallInfoBaseData = type { ptr, ptr, ptr, i32, i8, i16, [0 x %struct.NullableDatum] }
%struct.NullableDatum = type { i64, i8 }
%struct.ReturnSetInfo = type { i32, ptr, ptr, i32, i32, i32, ptr, ptr }
%struct.JsonLexContext = type { ptr, i64, i32, ptr, ptr, ptr, i8, i32, i32, i32, i32, ptr, ptr, ptr, i8, ptr, ptr }
%struct.JsonSemAction = type { ptr, ptr, ptr, ptr, ptr, ptr, ptr, ptr, ptr, ptr }
%struct.EachState = type { ptr, ptr, ptr, ptr, ptr, i8, i8, ptr }

@CurrentMemoryContext = external global ptr, align 8
@.str.59 = private unnamed_addr constant [24 x i8] c"json_each temporary cxt\00", align 1

; Function Attrs: nounwind uwtable
define dso_local zeroext i1 @pg_parse_json_or_errsave(ptr noundef %0, ptr noundef %1, ptr noundef %2) #0 {
  %4 = alloca i1, align 1
  %5 = alloca ptr, align 8
  %6 = alloca ptr, align 8
  %7 = alloca ptr, align 8
  %8 = alloca i32, align 4
  %9 = alloca i32, align 4
  store ptr %0, ptr %5, align 8
  store ptr %1, ptr %6, align 8
  store ptr %2, ptr %7, align 8
  call void @llvm.lifetime.start.p0(i64 4, ptr %8) #10
  %10 = load ptr, ptr %5, align 8
  %11 = load ptr, ptr %6, align 8
  %12 = call i32 @pg_parse_json(ptr noundef %10, ptr noundef %11)
  store i32 %12, ptr %8, align 4
  %13 = load i32, ptr %8, align 4
  %14 = icmp ne i32 %13, 0
  br i1 %14, label %15, label %19

15:                                               ; preds = %3
  %16 = load i32, ptr %8, align 4
  %17 = load ptr, ptr %5, align 8
  %18 = load ptr, ptr %7, align 8
  call void @json_errsave_error(i32 noundef %16, ptr noundef %17, ptr noundef %18)
  store i1 false, ptr %4, align 1
  store i32 1, ptr %9, align 4
  br label %20

19:                                               ; preds = %3
  store i1 true, ptr %4, align 1
  store i32 1, ptr %9, align 4
  br label %20

20:                                               ; preds = %19, %15
  call void @llvm.lifetime.end.p0(i64 4, ptr %8) #10
  %21 = load i1, ptr %4, align 1
  ret i1 %21
}

; Function Attrs: nounwind uwtable
define dso_local ptr @makeJsonLexContext(ptr noundef %0, ptr noundef %1, i1 noundef zeroext %2) #0 {
  %4 = alloca ptr, align 8
  %5 = alloca ptr, align 8
  %6 = alloca i8, align 1
  store ptr %0, ptr %4, align 8
  store ptr %1, ptr %5, align 8
  %7 = zext i1 %2 to i8
  store i8 %7, ptr %6, align 1
  %8 = load ptr, ptr %5, align 8
  %9 = call ptr @pg_detoast_datum_packed(ptr noundef %8)
  store ptr %9, ptr %5, align 8
  %10 = load ptr, ptr %4, align 8
  %11 = load ptr, ptr %5, align 8
  %12 = getelementptr inbounds nuw %struct.varattrib_1b, ptr %11, i32 0, i32 0
  %13 = load i8, ptr %12, align 1
  %14 = zext i8 %13 to i32
  %15 = and i32 %14, 1
  %16 = icmp eq i32 %15, 1
  br i1 %16, label %17, label %21

17:                                               ; preds = %3
  %18 = load ptr, ptr %5, align 8
  %19 = getelementptr inbounds nuw %struct.varattrib_1b, ptr %18, i32 0, i32 1
  %20 = getelementptr inbounds [0 x i8], ptr %19, i64 0, i64 0
  br label %25

21:                                               ; preds = %3
  %22 = load ptr, ptr %5, align 8
  %23 = getelementptr inbounds nuw %struct.anon, ptr %22, i32 0, i32 1
  %24 = getelementptr inbounds [0 x i8], ptr %23, i64 0, i64 0
  br label %25

25:                                               ; preds = %21, %17
  %26 = phi ptr [ %20, %17 ], [ %24, %21 ]
  %27 = load ptr, ptr %5, align 8
  %28 = getelementptr inbounds nuw %struct.varattrib_1b, ptr %27, i32 0, i32 0
  %29 = load i8, ptr %28, align 1
  %30 = zext i8 %29 to i32
  %31 = icmp eq i32 %30, 1
  br i1 %31, label %32, label %60

32:                                               ; preds = %25
  %33 = load ptr, ptr %5, align 8
  %34 = getelementptr inbounds nuw %struct.varattrib_1b_e, ptr %33, i32 0, i32 1
  %35 = load i8, ptr %34, align 1
  %36 = zext i8 %35 to i32
  %37 = icmp eq i32 %36, 1
  br i1 %37, label %38, label %39

38:                                               ; preds = %32
  br label %56

39:                                               ; preds = %32
  %40 = load ptr, ptr %5, align 8
  %41 = getelementptr inbounds nuw %struct.varattrib_1b_e, ptr %40, i32 0, i32 1
  %42 = load i8, ptr %41, align 1
  %43 = zext i8 %42 to i32
  %44 = and i32 %43, -2
  %45 = icmp eq i32 %44, 2
  br i1 %45, label %46, label %47

46:                                               ; preds = %39
  br label %54

47:                                               ; preds = %39
  %48 = load ptr, ptr %5, align 8
  %49 = getelementptr inbounds nuw %struct.varattrib_1b_e, ptr %48, i32 0, i32 1
  %50 = load i8, ptr %49, align 1
  %51 = zext i8 %50 to i32
  %52 = icmp eq i32 %51, 18
  %53 = select i1 %52, i64 16, i64 0
  br label %54

54:                                               ; preds = %47, %46
  %55 = phi i64 [ 8, %46 ], [ %53, %47 ]
  br label %56

56:                                               ; preds = %54, %38
  %57 = phi i64 [ 8, %38 ], [ %55, %54 ]
  %58 = add i64 2, %57
  %59 = sub i64 %58, 2
  br label %86

60:                                               ; preds = %25
  %61 = load ptr, ptr %5, align 8
  %62 = getelementptr inbounds nuw %struct.varattrib_1b, ptr %61, i32 0, i32 0
  %63 = load i8, ptr %62, align 1
  %64 = zext i8 %63 to i32
  %65 = and i32 %64, 1
  %66 = icmp eq i32 %65, 1
  br i1 %66, label %67, label %76

67:                                               ; preds = %60
  %68 = load ptr, ptr %5, align 8
  %69 = getelementptr inbounds nuw %struct.varattrib_1b, ptr %68, i32 0, i32 0
  %70 = load i8, ptr %69, align 1
  %71 = zext i8 %70 to i32
  %72 = ashr i32 %71, 1
  %73 = and i32 %72, 127
  %74 = sext i32 %73 to i64
  %75 = sub i64 %74, 1
  br label %84

76:                                               ; preds = %60
  %77 = load ptr, ptr %5, align 8
  %78 = getelementptr inbounds nuw %struct.anon, ptr %77, i32 0, i32 0
  %79 = load i32, ptr %78, align 4
  %80 = lshr i32 %79, 2
  %81 = and i32 %80, 1073741823
  %82 = sub i32 %81, 4
  %83 = zext i32 %82 to i64
  br label %84

84:                                               ; preds = %76, %67
  %85 = phi i64 [ %75, %67 ], [ %83, %76 ]
  br label %86

86:                                               ; preds = %84, %56
  %87 = phi i64 [ %59, %56 ], [ %85, %84 ]
  %88 = call i32 @GetDatabaseEncoding()
  %89 = load i8, ptr %6, align 1, !range !4, !noundef !5
  %90 = trunc i8 %89 to i1
  %91 = call ptr @makeJsonLexContextCstringLen(ptr noundef %10, ptr noundef %26, i64 noundef %87, i32 noundef %88, i1 noundef zeroext %90)
  ret ptr %91
}

; Function Attrs: inlinehint nounwind uwtable
define internal ptr @DatumGetPointer(i64 noundef %0) #3 {
  %2 = alloca i64, align 8
  store i64 %0, ptr %2, align 8
  %3 = load i64, ptr %2, align 8
  %4 = inttoptr i64 %3 to ptr
  ret ptr %4
}

; Function Attrs: nounwind uwtable
define internal i64 @each_worker(ptr noundef %0, i1 noundef zeroext %1) #0 {
  %3 = alloca i64, align 8
  %4 = alloca ptr, align 8
  %5 = alloca i8, align 1
  %6 = alloca ptr, align 8
  %7 = alloca %struct.JsonLexContext, align 8
  %8 = alloca ptr, align 8
  %9 = alloca ptr, align 8
  %10 = alloca ptr, align 8
  %11 = alloca i32, align 4
  %12 = alloca i32, align 4
  store ptr %0, ptr %4, align 8
  %13 = zext i1 %1 to i8
  store i8 %13, ptr %5, align 1
  call void @llvm.lifetime.start.p0(i64 8, ptr %6) #10
  %14 = load ptr, ptr %4, align 8
  %15 = getelementptr inbounds nuw %struct.FunctionCallInfoBaseData, ptr %14, i32 0, i32 6
  %16 = getelementptr inbounds [0 x %struct.NullableDatum], ptr %15, i64 0, i64 0
  %17 = getelementptr inbounds nuw %struct.NullableDatum, ptr %16, i32 0, i32 0
  %18 = load i64, ptr %17, align 8
  %19 = call ptr @DatumGetPointer(i64 noundef %18)
  %20 = call ptr @pg_detoast_datum_packed(ptr noundef %19)
  store ptr %20, ptr %6, align 8
  call void @llvm.lifetime.start.p0(i64 120, ptr %7) #10
  call void @llvm.lifetime.start.p0(i64 8, ptr %8) #10
  call void @llvm.lifetime.start.p0(i64 8, ptr %9) #10
  call void @llvm.lifetime.start.p0(i64 8, ptr %10) #10
  %21 = call ptr @palloc0(i64 noundef 56)
  store ptr %21, ptr %10, align 8
  %22 = call ptr @palloc0(i64 noundef 80)
  store ptr %22, ptr %8, align 8
  %23 = load ptr, ptr %4, align 8
  %24 = getelementptr inbounds nuw %struct.FunctionCallInfoBaseData, ptr %23, i32 0, i32 2
  %25 = load ptr, ptr %24, align 8
  store ptr %25, ptr %9, align 8
  %26 = load ptr, ptr %4, align 8
  call void @InitMaterializedSRF(ptr noundef %26, i32 noundef 2)
  %27 = load ptr, ptr %9, align 8
  %28 = getelementptr inbounds nuw %struct.ReturnSetInfo, ptr %27, i32 0, i32 6
  %29 = load ptr, ptr %28, align 8
  %30 = load ptr, ptr %10, align 8
  %31 = getelementptr inbounds nuw %struct.EachState, ptr %30, i32 0, i32 1
  store ptr %29, ptr %31, align 8
  %32 = load ptr, ptr %9, align 8
  %33 = getelementptr inbounds nuw %struct.ReturnSetInfo, ptr %32, i32 0, i32 7
  %34 = load ptr, ptr %33, align 8
  %35 = load ptr, ptr %10, align 8
  %36 = getelementptr inbounds nuw %struct.EachState, ptr %35, i32 0, i32 2
  store ptr %34, ptr %36, align 8
  %37 = load ptr, ptr %10, align 8
  %38 = load ptr, ptr %8, align 8
  %39 = getelementptr inbounds nuw %struct.JsonSemAction, ptr %38, i32 0, i32 0
  store ptr %37, ptr %39, align 8
  %40 = load ptr, ptr %8, align 8
  %41 = getelementptr inbounds nuw %struct.JsonSemAction, ptr %40, i32 0, i32 3
  store ptr @each_array_start, ptr %41, align 8
  %42 = load ptr, ptr %8, align 8
  %43 = getelementptr inbounds nuw %struct.JsonSemAction, ptr %42, i32 0, i32 9
  store ptr @each_scalar, ptr %43, align 8
  %44 = load ptr, ptr %8, align 8
  %45 = getelementptr inbounds nuw %struct.JsonSemAction, ptr %44, i32 0, i32 5
  store ptr @each_object_field_start, ptr %45, align 8
  %46 = load ptr, ptr %8, align 8
  %47 = getelementptr inbounds nuw %struct.JsonSemAction, ptr %46, i32 0, i32 6
  store ptr @each_object_field_end, ptr %47, align 8
  %48 = load i8, ptr %5, align 1, !range !4, !noundef !5
  %49 = trunc i8 %48 to i1
  %50 = load ptr, ptr %10, align 8
  %51 = getelementptr inbounds nuw %struct.EachState, ptr %50, i32 0, i32 5
  %52 = zext i1 %49 to i8
  store i8 %52, ptr %51, align 8
  %53 = load ptr, ptr %10, align 8
  %54 = getelementptr inbounds nuw %struct.EachState, ptr %53, i32 0, i32 6
  store i8 0, ptr %54, align 1
  %55 = load ptr, ptr %6, align 8
  %56 = call ptr @makeJsonLexContext(ptr noundef %7, ptr noundef %55, i1 noundef zeroext true)
  %57 = load ptr, ptr %10, align 8
  %58 = getelementptr inbounds nuw %struct.EachState, ptr %57, i32 0, i32 0
  store ptr %56, ptr %58, align 8
  br label %59

59:                                               ; preds = %2
  br label %60

60:                                               ; preds = %59
  br label %61

61:                                               ; preds = %60
  store i32 1, ptr %11, align 4
  %62 = load ptr, ptr @CurrentMemoryContext, align 8
  %63 = call ptr @AllocSetContextCreateInternal(ptr noundef %62, ptr noundef @.str.59, i64 noundef 0, i64 noundef 8192, i64 noundef 8388608)
  %64 = load ptr, ptr %10, align 8
  %65 = getelementptr inbounds nuw %struct.EachState, ptr %64, i32 0, i32 3
  store ptr %63, ptr %65, align 8
  %66 = load ptr, ptr %8, align 8
  %67 = call zeroext i1 @pg_parse_json_or_errsave(ptr noundef %7, ptr noundef %66, ptr noundef null)
  %68 = load ptr, ptr %10, align 8
  %69 = getelementptr inbounds nuw %struct.EachState, ptr %68, i32 0, i32 3
  %70 = load ptr, ptr %69, align 8
  call void @MemoryContextDelete(ptr noundef %70)
  call void @freeJsonLexContext(ptr noundef %7)
  br label %71

71:                                               ; preds = %61
  %72 = load ptr, ptr %4, align 8
  %73 = getelementptr inbounds nuw %struct.FunctionCallInfoBaseData, ptr %72, i32 0, i32 4
  store i8 1, ptr %73, align 4
  store i64 0, ptr %3, align 8
  store i32 1, ptr %12, align 4
  br label %76

74:                                               ; No predecessors!
  br label %75

75:                                               ; preds = %74
  store i32 0, ptr %12, align 4
  br label %76

76:                                               ; preds = %75, %71
  call void @llvm.lifetime.end.p0(i64 8, ptr %10) #10
  call void @llvm.lifetime.end.p0(i64 8, ptr %9) #10
  call void @llvm.lifetime.end.p0(i64 8, ptr %8) #10
  call void @llvm.lifetime.end.p0(i64 120, ptr %7) #10
  call void @llvm.lifetime.end.p0(i64 8, ptr %6) #10
  %77 = load i32, ptr %12, align 4
  switch i32 %77, label %80 [
    i32 0, label %78
    i32 1, label %78
  ]

78:                                               ; preds = %76, %76
  %79 = load i64, ptr %3, align 8
  ret i64 %79

80:                                               ; preds = %76
  unreachable
}