; Function Attrs: nounwind uwtable
define internal fastcc void @each_worker(ptr noundef %0, i1 noundef zeroext %1) unnamed_addr #0 {
  %3 = alloca %struct.JsonLexContext, align 8
  %4 = zext i1 %1 to i8
  %5 = getelementptr inbounds nuw i8, ptr %0, i64 32
  %6 = load i64, ptr %5, align 8
  %7 = inttoptr i64 %6 to ptr
  %8 = tail call ptr @pg_detoast_datum_packed(ptr noundef %7) #15
  call void @llvm.lifetime.start.p0(i64 120, ptr nonnull %3) #15
  %9 = tail call ptr @palloc0(i64 noundef 56) #15
  %10 = tail call ptr @palloc0(i64 noundef 80) #15
  %11 = getelementptr inbounds nuw i8, ptr %0, i64 16
  %12 = load ptr, ptr %11, align 8
  tail call void @InitMaterializedSRF(ptr noundef %0, i32 noundef 2) #15
  %13 = getelementptr inbounds nuw i8, ptr %12, i64 40
  %14 = load ptr, ptr %13, align 8
  %15 = getelementptr inbounds nuw i8, ptr %9, i64 8
  store ptr %14, ptr %15, align 8
  %16 = getelementptr inbounds nuw i8, ptr %12, i64 48
  %17 = load ptr, ptr %16, align 8
  %18 = getelementptr inbounds nuw i8, ptr %9, i64 16
  store ptr %17, ptr %18, align 8
  store ptr %9, ptr %10, align 8
  %19 = getelementptr inbounds nuw i8, ptr %10, i64 24
  store ptr @each_array_start, ptr %19, align 8
  %20 = getelementptr inbounds nuw i8, ptr %10, i64 72
  store ptr @each_scalar, ptr %20, align 8
  %21 = getelementptr inbounds nuw i8, ptr %10, i64 40
  store ptr @each_object_field_start, ptr %21, align 8
  %22 = getelementptr inbounds nuw i8, ptr %10, i64 48
  store ptr @each_object_field_end, ptr %22, align 8
  %23 = getelementptr inbounds nuw i8, ptr %9, i64 40
  store i8 %4, ptr %23, align 8
  %24 = getelementptr inbounds nuw i8, ptr %9, i64 41
  store i8 0, ptr %24, align 1
  %25 = tail call ptr @pg_detoast_datum_packed(ptr noundef %8) #15
  %26 = load i8, ptr %25, align 1
  %27 = zext i8 %26 to i32
  %28 = and i32 %27, 1
  %.not.i = icmp eq i32 %28, 0
  %29 = getelementptr inbounds nuw i8, ptr %25, i64 1
  %30 = icmp eq i8 %26, 1
  br i1 %30, label %31, label %39

31:                                               ; preds = %2
  %32 = load i8, ptr %29, align 1
  %33 = icmp eq i8 %32, 1
  %34 = and i8 %32, -2
  %35 = icmp eq i8 %34, 2
  %or.cond.i = or i1 %33, %35
  %36 = icmp eq i8 %32, 18
  %37 = select i1 %36, i64 16, i64 0
  %38 = select i1 %or.cond.i, i64 8, i64 %37
  br label %makeJsonLexContext.exit

39:                                               ; preds = %2
  br i1 %.not.i, label %44, label %40

40:                                               ; preds = %39
  %41 = lshr i32 %27, 1
  %42 = zext nneg i32 %41 to i64
  %43 = add nsw i64 %42, -1
  br label %makeJsonLexContext.exit

44:                                               ; preds = %39
  %45 = load i32, ptr %25, align 4
  %46 = lshr i32 %45, 2
  %47 = add nsw i32 %46, -4
  %48 = zext i32 %47 to i64
  br label %makeJsonLexContext.exit

makeJsonLexContext.exit:                          ; preds = %31, %40, %44
  %49 = phi i64 [ %38, %31 ], [ %43, %40 ], [ %48, %44 ]
  %50 = getelementptr inbounds nuw i8, ptr %25, i64 4
  %51 = select i1 %.not.i, ptr %50, ptr %29
  %52 = tail call i32 @GetDatabaseEncoding() #15
  %53 = call ptr @makeJsonLexContextCstringLen(ptr noundef nonnull %3, ptr noundef nonnull %51, i64 noundef %49, i32 noundef %52, i1 noundef zeroext true) #15
  store ptr %53, ptr %9, align 8
  %54 = load ptr, ptr @CurrentMemoryContext, align 8
  %55 = call ptr @AllocSetContextCreateInternal(ptr noundef %54, ptr noundef nonnull @.str.59, i64 noundef 0, i64 noundef 8192, i64 noundef 8388608) #15
  %56 = getelementptr inbounds nuw i8, ptr %9, i64 24
  store ptr %55, ptr %56, align 8
  %57 = call i32 @pg_parse_json(ptr noundef nonnull %3, ptr noundef nonnull %10) #15
  %.not.i22 = icmp eq i32 %57, 0
  br i1 %.not.i22, label %pg_parse_json_or_errsave.exit, label %58

58:                                               ; preds = %makeJsonLexContext.exit
  call void @json_errsave_error(i32 noundef %57, ptr noundef nonnull %3, ptr noundef null)
  br label %pg_parse_json_or_errsave.exit

pg_parse_json_or_errsave.exit:                    ; preds = %makeJsonLexContext.exit, %58
  %59 = load ptr, ptr %56, align 8
  call void @MemoryContextDelete(ptr noundef %59) #15
  call void @freeJsonLexContext(ptr noundef nonnull %3) #15
  %60 = getelementptr inbounds nuw i8, ptr %0, i64 28
  store i8 1, ptr %60, align 4
  call void @llvm.lifetime.end.p0(i64 120, ptr nonnull %3) #15
  ret void
}